target datalayout = "e-m:e-p270:32:32-p271:32:32-p272:64:64-i64:64-i128:128-f80:128-n8:16:32:64-S128"
target triple = "x86_64-pc-linux-gnu"

%"class.cv::Mat" = type { i32, i32, i32, i32, ptr, ptr, ptr, ptr, ptr, ptr, %"struct.cv::MatSize", %"struct.cv::MatStep" }
%"struct.cv::MatSize" = type { ptr }
%"struct.cv::MatStep" = type { ptr, [2 x i64] }
%"class.cv::Size_" = type { i32, i32 }
%"class.cv::Size_.0" = type { double, double }
%"class.cv::_InputArray" = type { i32, ptr, %"class.cv::Size_" }
%"class.cv::_OutputArray" = type { %"class.cv::_InputArray" }

; Function Attrs: alwaysinline mustprogress nounwind uwtable
define internal noundef i32 @_ZL14_mm_cvtsd_si32Dv2_d(<2 x double> noundef %0) #16 {
  %2 = alloca <2 x double>, align 16
  store <2 x double> %0, ptr %2, align 16, !tbaa !29
  %3 = load <2 x double>, ptr %2, align 16, !tbaa !29
  %4 = call i32 @llvm.x86.sse2.cvtsd2si(<2 x double> %3)
  ret i32 %4
}

; Function Attrs: alwaysinline mustprogress nounwind uwtable
define internal noundef <2 x double> @_ZL10_mm_set_sdd(double noundef %0) #16 {
  %2 = alloca double, align 8
  %3 = alloca <2 x double>, align 16
  store double %0, ptr %2, align 8, !tbaa !8
  %4 = load double, ptr %2, align 8, !tbaa !8
  %5 = insertelement <2 x double> poison, double %4, i32 0
  %6 = insertelement <2 x double> %5, double 0.000000e+00, i32 1
  store <2 x double> %6, ptr %3, align 16, !tbaa !29
  %7 = load <2 x double>, ptr %3, align 16, !tbaa !29
  ret <2 x double> %7
}

; Function Attrs: inlinehint mustprogress uwtable
define internal noundef i32 @_ZL7cvRoundd(double noundef %0) #15 {
  %2 = alloca double, align 8
  %3 = alloca <2 x double>, align 16
  store double %0, ptr %2, align 8, !tbaa !8
  call void @llvm.lifetime.start.p0(i64 16, ptr %3) #3
  %4 = load double, ptr %2, align 8, !tbaa !8
  %5 = call noundef <2 x double> @_ZL10_mm_set_sdd(double noundef %4)
  store <2 x double> %5, ptr %3, align 16, !tbaa !29
  %6 = load <2 x double>, ptr %3, align 16, !tbaa !29
  %7 = call noundef i32 @_ZL14_mm_cvtsd_si32Dv2_d(<2 x double> noundef %6)
  call void @llvm.lifetime.end.p0(i64 16, ptr %3) #3
  ret i32 %7
}

; Function Attrs: inlinehint mustprogress uwtable
define internal noundef i32 @_ZN2cvL13saturate_castIiEET_d(double noundef %0) #8 {
  %2 = alloca double, align 8
  store double %0, ptr %2, align 8, !tbaa !8
  %3 = load double, ptr %2, align 8, !tbaa !8
  %4 = call noundef i32 @_ZL7cvRoundd(double noundef %3)
  ret i32 %4
}

; Function Attrs: inlinehint mustprogress uwtable
define linkonce_odr hidden void @_ZN2cv11_InputArrayC2Ev(ptr noundef nonnull align 8 dereferenceable(24) %0) unnamed_addr #8 comdat align 2 {
  %2 = alloca ptr, align 8
  store ptr %0, ptr %2, align 8, !tbaa !58
  %3 = load ptr, ptr %2, align 8
  %4 = getelementptr inbounds nuw %"class.cv::_InputArray", ptr %3, i32 0, i32 2
  call void @_ZN2cv5Size_IiEC2Ev(ptr noundef nonnull align 4 dereferenceable(8) %4)
  call void @_ZN2cv11_InputArray4initEiPKv(ptr noundef nonnull align 8 dereferenceable(24) %3, i32 noundef 0, ptr noundef null)
  ret void
}

; Function Attrs: inlinehint mustprogress nounwind uwtable
define linkonce_odr hidden void @_ZN2cv11_InputArray4initEiPKv(ptr noundef nonnull align 8 dereferenceable(24) %0, i32 noundef %1, ptr noundef %2) #4 comdat align 2 {
  %4 = alloca ptr, align 8
  %5 = alloca i32, align 4
  %6 = alloca ptr, align 8
  store ptr %0, ptr %4, align 8, !tbaa !58
  store i32 %1, ptr %5, align 4, !tbaa !17
  store ptr %2, ptr %6, align 8, !tbaa !121
  %7 = load ptr, ptr %4, align 8
  %8 = load i32, ptr %5, align 4, !tbaa !17
  %9 = getelementptr inbounds nuw %"class.cv::_InputArray", ptr %7, i32 0, i32 0
  store i32 %8, ptr %9, align 8, !tbaa !122
  %10 = load ptr, ptr %6, align 8, !tbaa !121
  %11 = getelementptr inbounds nuw %"class.cv::_InputArray", ptr %7, i32 0, i32 1
  store ptr %10, ptr %11, align 8, !tbaa !124
  ret void
}

; Function Attrs: inlinehint mustprogress nounwind uwtable
define linkonce_odr hidden void @_ZN2cv5Size_IiEC2Ev(ptr noundef nonnull align 4 dereferenceable(8) %0) unnamed_addr #4 comdat align 2 {
  %2 = alloca ptr, align 8
  store ptr %0, ptr %2, align 8, !tbaa !53
  %3 = load ptr, ptr %2, align 8
  %4 = getelementptr inbounds nuw %"class.cv::Size_", ptr %3, i32 0, i32 0
  store i32 0, ptr %4, align 4, !tbaa !55
  %5 = getelementptr inbounds nuw %"class.cv::Size_", ptr %3, i32 0, i32 1
  store i32 0, ptr %5, align 4, !tbaa !57
  ret void
}

; Function Attrs: inlinehint mustprogress nounwind uwtable
define linkonce_odr hidden void @_ZN2cv5Size_IdEC2Edd(ptr noundef nonnull align 8 dereferenceable(16) %0, double noundef %1, double noundef %2) unnamed_addr #4 comdat align 2 {
  %4 = alloca ptr, align 8
  %5 = alloca double, align 8
  %6 = alloca double, align 8
  store ptr %0, ptr %4, align 8, !tbaa !62
  store double %1, ptr %5, align 8, !tbaa !8
  store double %2, ptr %6, align 8, !tbaa !8
  %7 = load ptr, ptr %4, align 8
  %8 = getelementptr inbounds nuw %"class.cv::Size_.0", ptr %7, i32 0, i32 0
  %9 = load double, ptr %5, align 8, !tbaa !8
  store double %9, ptr %8, align 8, !tbaa !48
  %10 = getelementptr inbounds nuw %"class.cv::Size_.0", ptr %7, i32 0, i32 1
  %11 = load double, ptr %6, align 8, !tbaa !8
  store double %11, ptr %10, align 8, !tbaa !46
  ret void
}

; Function Attrs: inlinehint mustprogress nounwind uwtable
define internal noundef double @_ZN2cvL13saturate_castIdEET_i(i32 noundef %0) #4 {
  %2 = alloca i32, align 4
  store i32 %0, ptr %2, align 4, !tbaa !17
  %3 = load i32, ptr %2, align 4, !tbaa !17
  %4 = sitofp i32 %3 to double
  ret double %4
}

; Function Attrs: inlinehint mustprogress nounwind uwtable
define linkonce_odr hidden void @_ZN2cv5Size_IiEC2Eii(ptr noundef nonnull align 4 dereferenceable(8) %0, i32 noundef %1, i32 noundef %2) unnamed_addr #4 comdat align 2 {
  %4 = alloca ptr, align 8
  %5 = alloca i32, align 4
  %6 = alloca i32, align 4
  store ptr %0, ptr %4, align 8, !tbaa !53
  store i32 %1, ptr %5, align 4, !tbaa !17
  store i32 %2, ptr %6, align 4, !tbaa !17
  %7 = load ptr, ptr %4, align 8
  %8 = getelementptr inbounds nuw %"class.cv::Size_", ptr %7, i32 0, i32 0
  %9 = load i32, ptr %5, align 4, !tbaa !17
  store i32 %9, ptr %8, align 4, !tbaa !55
  %10 = getelementptr inbounds nuw %"class.cv::Size_", ptr %7, i32 0, i32 1
  %11 = load i32, ptr %6, align 4, !tbaa !17
  store i32 %11, ptr %10, align 4, !tbaa !57
  ret void
}

; Function Attrs: inlinehint mustprogress nounwind uwtable
define linkonce_odr hidden void @_ZN2cv11_InputArrayD2Ev(ptr noundef nonnull align 8 dereferenceable(24) %0) unnamed_addr #4 comdat align 2 {
  %2 = alloca ptr, align 8
  store ptr %0, ptr %2, align 8, !tbaa !58
  ret void
}

; Function Attrs: inlinehint mustprogress uwtable
define linkonce_odr hidden i64 @_ZNK2cv5Size_IdEcvNS0_IT_EEIiEEv(ptr noundef nonnull align 8 dereferenceable(16) %0) #8 comdat align 2 {
  %2 = alloca %"class.cv::Size_", align 4
  %3 = alloca ptr, align 8
  store ptr %0, ptr %3, align 8, !tbaa !62
  %4 = load ptr, ptr %3, align 8
  %5 = getelementptr inbounds nuw %"class.cv::Size_.0", ptr %4, i32 0, i32 0
  %6 = load double, ptr %5, align 8, !tbaa !48
  %7 = call noundef i32 @_ZN2cvL13saturate_castIiEET_d(double noundef %6)
  %8 = getelementptr inbounds nuw %"class.cv::Size_.0", ptr %4, i32 0, i32 1
  %9 = load double, ptr %8, align 8, !tbaa !46
  %10 = call noundef i32 @_ZN2cvL13saturate_castIiEET_d(double noundef %9)
  call void @_ZN2cv5Size_IiEC2Eii(ptr noundef nonnull align 4 dereferenceable(8) %2, i32 noundef %7, i32 noundef %10)
  %11 = load i64, ptr %2, align 4
  ret i64 %11
}

; Function Attrs: inlinehint mustprogress uwtable
define linkonce_odr hidden void @_ZN2cv12_OutputArrayC2ERNS_3MatE(ptr noundef nonnull align 8 dereferenceable(24) %0, ptr noundef nonnull align 8 dereferenceable(96) %1) unnamed_addr #8 comdat align 2 {
  %3 = alloca ptr, align 8
  %4 = alloca ptr, align 8
  store ptr %0, ptr %3, align 8, !tbaa !60
  store ptr %1, ptr %4, align 8, !tbaa !15
  %5 = load ptr, ptr %3, align 8
  call void @_ZN2cv11_InputArrayC2Ev(ptr noundef nonnull align 8 dereferenceable(24) %5)
  %6 = load ptr, ptr %4, align 8, !tbaa !15
  call void @_ZN2cv11_InputArray4initEiPKv(ptr noundef nonnull align 8 dereferenceable(24) %5, i32 noundef 33619968, ptr noundef %6)
  ret void
}

; Function Attrs: inlinehint mustprogress uwtable
define linkonce_odr hidden void @_ZN2cv11_InputArrayC2ERKNS_3MatE(ptr noundef nonnull align 8 dereferenceable(24) %0, ptr noundef nonnull align 8 dereferenceable(96) %1) unnamed_addr #8 comdat align 2 {
  %3 = alloca ptr, align 8
  %4 = alloca ptr, align 8
  store ptr %0, ptr %3, align 8, !tbaa !58
  store ptr %1, ptr %4, align 8, !tbaa !15
  %5 = load ptr, ptr %3, align 8
  %6 = getelementptr inbounds nuw %"class.cv::_InputArray", ptr %5, i32 0, i32 2
  call void @_ZN2cv5Size_IiEC2Ev(ptr noundef nonnull align 4 dereferenceable(8) %6)
  %7 = load ptr, ptr %4, align 8, !tbaa !15
  call void @_ZN2cv11_InputArray4initEiPKv(ptr noundef nonnull align 8 dereferenceable(24) %5, i32 noundef 16842752, ptr noundef %7)
  ret void
}

; Function Attrs: inlinehint mustprogress uwtable
define linkonce_odr hidden { double, double } @_ZNK2cv5Size_IiEcvNS0_IT_EEIdEEv(ptr noundef nonnull align 4 dereferenceable(8) %0) #8 comdat align 2 {
  %2 = alloca %"class.cv::Size_.0", align 8
  %3 = alloca ptr, align 8
  store ptr %0, ptr %3, align 8, !tbaa !53
  %4 = load ptr, ptr %3, align 8
  %5 = getelementptr inbounds nuw %"class.cv::Size_", ptr %4, i32 0, i32 0
  %6 = load i32, ptr %5, align 4, !tbaa !55
  %7 = call noundef double @_ZN2cvL13saturate_castIdEET_i(i32 noundef %6)
  %8 = getelementptr inbounds nuw %"class.cv::Size_", ptr %4, i32 0, i32 1
  %9 = load i32, ptr %8, align 4, !tbaa !57
  %10 = call noundef double @_ZN2cvL13saturate_castIdEET_i(i32 noundef %9)
  call void @_ZN2cv5Size_IdEC2Edd(ptr noundef nonnull align 8 dereferenceable(16) %2, double noundef %7, double noundef %10)
  %11 = load { double, double }, ptr %2, align 8
  ret { double, double } %11
}

; Function Attrs: inlinehint mustprogress uwtable
define linkonce_odr hidden i64 @_ZNK2cv7MatSizeclEv(ptr noundef nonnull align 8 dereferenceable(8) %0) #8 comdat align 2 {
  %2 = alloca %"class.cv::Size_", align 4
  %3 = alloca ptr, align 8
  store ptr %0, ptr %3, align 8, !tbaa !50
  %4 = load ptr, ptr %3, align 8
  %5 = getelementptr inbounds nuw %"struct.cv::MatSize", ptr %4, i32 0, i32 0
  %6 = load ptr, ptr %5, align 8, !tbaa !52
  %7 = getelementptr inbounds i32, ptr %6, i64 1
  %8 = load i32, ptr %7, align 4, !tbaa !17
  %9 = getelementptr inbounds nuw %"struct.cv::MatSize", ptr %4, i32 0, i32 0
  %10 = load ptr, ptr %9, align 8, !tbaa !52
  %11 = getelementptr inbounds i32, ptr %10, i64 0
  %12 = load i32, ptr %11, align 4, !tbaa !17
  call void @_ZN2cv5Size_IiEC2Eii(ptr noundef nonnull align 4 dereferenceable(8) %2, i32 noundef %8, i32 noundef %12)
  %13 = load i64, ptr %2, align 4
  ret i64 %13
}

; Function Attrs: mustprogress uwtable
define hidden noundef double @_ZN2cv8tracking4impl3tld12scaleAndBlurERKNS_3MatEiRS3_S6_NS_5Size_IiEEd(ptr noundef nonnull align 8 dereferenceable(96) %0, i32 noundef %1, ptr noundef nonnull align 8 dereferenceable(96) %2, ptr noundef nonnull align 8 dereferenceable(96) %3, i64 %4, double noundef %5) #5 personality ptr @__gxx_personality_v0 {
  %7 = alloca %"class.cv::Size_", align 4
  %8 = alloca ptr, align 8
  %9 = alloca i32, align 4
  %10 = alloca ptr, align 8
  %11 = alloca ptr, align 8
  %12 = alloca double, align 8
  %13 = alloca double, align 8
  %14 = alloca i32, align 4
  %15 = alloca %"class.cv::Size_.0", align 8
  %16 = alloca %"class.cv::Size_", align 4
  %17 = alloca %"class.cv::_InputArray", align 8
  %18 = alloca %"class.cv::_OutputArray", align 8
  %19 = alloca ptr, align 8
  %20 = alloca i32, align 4
  %21 = alloca %"class.cv::Size_", align 4
  %22 = alloca %"class.cv::_InputArray", align 8
  %23 = alloca %"class.cv::_OutputArray", align 8
  %24 = alloca %"class.cv::Size_", align 4
  store i64 %4, ptr %7, align 4
  store ptr %0, ptr %8, align 8, !tbaa !15
  store i32 %1, ptr %9, align 4, !tbaa !17
  store ptr %2, ptr %10, align 8, !tbaa !15
  store ptr %3, ptr %11, align 8, !tbaa !15
  store double %5, ptr %12, align 8, !tbaa !8
  call void @llvm.lifetime.start.p0(i64 8, ptr %13) #3
  store double 1.000000e+00, ptr %13, align 8, !tbaa !8
  call void @llvm.lifetime.start.p0(i64 4, ptr %14) #3
  store i32 0, ptr %14, align 4, !tbaa !17
  br label %25

25:                                               ; preds = %31, %6
  %26 = load i32, ptr %14, align 4, !tbaa !17
  %27 = load i32, ptr %9, align 4, !tbaa !17
  %28 = icmp slt i32 %26, %27
  br i1 %28, label %30, label %29

29:                                               ; preds = %25
  call void @llvm.lifetime.end.p0(i64 4, ptr %14) #3
  br label %37

30:                                               ; preds = %25
  br label %31

31:                                               ; preds = %30
  %32 = load i32, ptr %14, align 4, !tbaa !17
  %33 = add nsw i32 %32, 1
  store i32 %33, ptr %14, align 4, !tbaa !17
  %34 = load double, ptr %12, align 8, !tbaa !8
  %35 = load double, ptr %13, align 8, !tbaa !8
  %36 = fmul double %35, %34
  store double %36, ptr %13, align 8, !tbaa !8
  br label %25, !llvm.loop !45

37:                                               ; preds = %29
  call void @llvm.lifetime.start.p0(i64 16, ptr %15) #3
  call void @llvm.lifetime.start.p0(i64 8, ptr %16) #3
  %38 = load ptr, ptr %8, align 8, !tbaa !15
  %39 = getelementptr inbounds nuw %"class.cv::Mat", ptr %38, i32 0, i32 10
  %40 = call i64 @_ZNK2cv7MatSizeclEv(ptr noundef nonnull align 8 dereferenceable(8) %39)
  store i64 %40, ptr %16, align 4
  %41 = call { double, double } @_ZNK2cv5Size_IiEcvNS0_IT_EEIdEEv(ptr noundef nonnull align 4 dereferenceable(8) %16)
  %42 = getelementptr inbounds nuw { double, double }, ptr %15, i32 0, i32 0
  %43 = extractvalue { double, double } %41, 0
  store double %43, ptr %42, align 8
  %44 = getelementptr inbounds nuw { double, double }, ptr %15, i32 0, i32 1
  %45 = extractvalue { double, double } %41, 1
  store double %45, ptr %44, align 8
  call void @llvm.lifetime.end.p0(i64 8, ptr %16) #3
  %46 = load double, ptr %13, align 8, !tbaa !8
  %47 = getelementptr inbounds nuw %"class.cv::Size_.0", ptr %15, i32 0, i32 1
  %48 = load double, ptr %47, align 8, !tbaa !46
  %49 = fdiv double %48, %46
  store double %49, ptr %47, align 8, !tbaa !46
  %50 = load double, ptr %13, align 8, !tbaa !8
  %51 = getelementptr inbounds nuw %"class.cv::Size_.0", ptr %15, i32 0, i32 0
  %52 = load double, ptr %51, align 8, !tbaa !48
  %53 = fdiv double %52, %50
  store double %53, ptr %51, align 8, !tbaa !48
  call void @llvm.lifetime.start.p0(i64 24, ptr %17) #3
  %54 = load ptr, ptr %8, align 8, !tbaa !15
  call void @_ZN2cv11_InputArrayC2ERKNS_3MatE(ptr noundef nonnull align 8 dereferenceable(24) %17, ptr noundef nonnull align 8 dereferenceable(96) %54)
  call void @llvm.lifetime.start.p0(i64 24, ptr %18) #3
  %55 = load ptr, ptr %10, align 8, !tbaa !15
  invoke void @_ZN2cv12_OutputArrayC2ERNS_3MatE(ptr noundef nonnull align 8 dereferenceable(24) %18, ptr noundef nonnull align 8 dereferenceable(96) %55)
          to label %56 unwind label %67

56:                                               ; preds = %37
  %57 = invoke i64 @_ZNK2cv5Size_IdEcvNS0_IT_EEIiEEv(ptr noundef nonnull align 8 dereferenceable(16) %15)
          to label %58 unwind label %71

58:                                               ; preds = %56
  store i64 %57, ptr %21, align 4
  %59 = load i64, ptr %21, align 4
  invoke void @_ZN2cv6resizeERKNS_11_InputArrayERKNS_12_OutputArrayENS_5Size_IiEEddi(ptr noundef nonnull align 8 dereferenceable(24) %17, ptr noundef nonnull align 8 dereferenceable(24) %18, i64 %59, double noundef 0.000000e+00, double noundef 0.000000e+00, i32 noundef 5)
          to label %60 unwind label %71

60:                                               ; preds = %58
  call void @_ZN2cv11_InputArrayD2Ev(ptr noundef nonnull align 8 dereferenceable(24) %18) #3
  call void @llvm.lifetime.end.p0(i64 24, ptr %18) #3
  call void @_ZN2cv11_InputArrayD2Ev(ptr noundef nonnull align 8 dereferenceable(24) %17) #3
  call void @llvm.lifetime.end.p0(i64 24, ptr %17) #3
  call void @llvm.lifetime.start.p0(i64 24, ptr %22) #3
  %61 = load ptr, ptr %10, align 8, !tbaa !15
  call void @_ZN2cv11_InputArrayC2ERKNS_3MatE(ptr noundef nonnull align 8 dereferenceable(24) %22, ptr noundef nonnull align 8 dereferenceable(96) %61)
  call void @llvm.lifetime.start.p0(i64 24, ptr %23) #3
  %62 = load ptr, ptr %11, align 8, !tbaa !15
  invoke void @_ZN2cv12_OutputArrayC2ERNS_3MatE(ptr noundef nonnull align 8 dereferenceable(24) %23, ptr noundef nonnull align 8 dereferenceable(96) %62)
          to label %63 unwind label %76

63:                                               ; preds = %60
  call void @llvm.memcpy.p0.p0.i64(ptr align 4 %24, ptr align 4 %7, i64 8, i1 false), !tbaa.struct !49
  %64 = load i64, ptr %24, align 4
  invoke void @_ZN2cv12GaussianBlurERKNS_11_InputArrayERKNS_12_OutputArrayENS_5Size_IiEEddiNS_13AlgorithmHintE(ptr noundef nonnull align 8 dereferenceable(24) %22, ptr noundef nonnull align 8 dereferenceable(24) %23, i64 %64, double noundef 0.000000e+00, double noundef 0.000000e+00, i32 noundef 4, i32 noundef 0)
          to label %65 unwind label %80

65:                                               ; preds = %63
  call void @_ZN2cv11_InputArrayD2Ev(ptr noundef nonnull align 8 dereferenceable(24) %23) #3
  call void @llvm.lifetime.end.p0(i64 24, ptr %23) #3
  call void @_ZN2cv11_InputArrayD2Ev(ptr noundef nonnull align 8 dereferenceable(24) %22) #3
  call void @llvm.lifetime.end.p0(i64 24, ptr %22) #3
  %66 = load double, ptr %13, align 8, !tbaa !8
  call void @llvm.lifetime.end.p0(i64 16, ptr %15) #3
  call void @llvm.lifetime.end.p0(i64 8, ptr %13) #3
  ret double %66

67:                                               ; preds = %37
  %68 = landingpad { ptr, i32 }
          cleanup
  %69 = extractvalue { ptr, i32 } %68, 0
  store ptr %69, ptr %19, align 8
  %70 = extractvalue { ptr, i32 } %68, 1
  store i32 %70, ptr %20, align 4
  br label %75

71:                                               ; preds = %58, %56
  %72 = landingpad { ptr, i32 }
          cleanup
  %73 = extractvalue { ptr, i32 } %72, 0
  store ptr %73, ptr %19, align 8
  %74 = extractvalue { ptr, i32 } %72, 1
  store i32 %74, ptr %20, align 4
  call void @_ZN2cv11_InputArrayD2Ev(ptr noundef nonnull align 8 dereferenceable(24) %18) #3
  br label %75

75:                                               ; preds = %71, %67
  call void @llvm.lifetime.end.p0(i64 24, ptr %18) #3
  call void @_ZN2cv11_InputArrayD2Ev(ptr noundef nonnull align 8 dereferenceable(24) %17) #3
  call void @llvm.lifetime.end.p0(i64 24, ptr %17) #3
  br label %85

76:                                               ; preds = %60
  %77 = landingpad { ptr, i32 }
          cleanup
  %78 = extractvalue { ptr, i32 } %77, 0
  store ptr %78, ptr %19, align 8
  %79 = extractvalue { ptr, i32 } %77, 1
  store i32 %79, ptr %20, align 4
  br label %84

80:                                               ; preds = %63
  %81 = landingpad { ptr, i32 }
          cleanup
  %82 = extractvalue { ptr, i32 } %81, 0
  store ptr %82, ptr %19, align 8
  %83 = extractvalue { ptr, i32 } %81, 1
  store i32 %83, ptr %20, align 4
  call void @_ZN2cv11_InputArrayD2Ev(ptr noundef nonnull align 8 dereferenceable(24) %23) #3
  br label %84

84:                                               ; preds = %80, %76
  call void @llvm.lifetime.end.p0(i64 24, ptr %23) #3
  call void @_ZN2cv11_InputArrayD2Ev(ptr noundef nonnull align 8 dereferenceable(24) %22) #3
  call void @llvm.lifetime.end.p0(i64 24, ptr %22) #3
  br label %85

85:                                               ; preds = %84, %75
  call void @llvm.lifetime.end.p0(i64 16, ptr %15) #3
  call void @llvm.lifetime.end.p0(i64 8, ptr %13) #3
  br label %86

86:                                               ; preds = %85
  %87 = load ptr, ptr %19, align 8
  %88 = load i32, ptr %20, align 4
  %89 = insertvalue { ptr, i32 } poison, ptr %87, 0
  %90 = insertvalue { ptr, i32 } %89, i32 %88, 1
  resume { ptr, i32 } %90
}