; Function Attrs: mustprogress uwtable
define hidden noundef double @_ZN2cv8tracking4impl3tld12scaleAndBlurERKNS_3MatEiRS3_S6_NS_5Size_IiEEd(ptr noundef nonnull align 8 dereferenceable(96) %0, i32 noundef %1, ptr noundef nonnull align 8 dereferenceable(96) %2, ptr noundef nonnull align 8 dereferenceable(96) %3, i64 %4, double noundef %5) local_unnamed_addr #7 personality ptr @__gxx_personality_v0 {
  %7 = alloca %"class.cv::_InputArray", align 8
  %8 = alloca %"class.cv::_OutputArray", align 8
  %9 = alloca %"class.cv::_InputArray", align 8
  %10 = alloca %"class.cv::_OutputArray", align 8
  %11 = icmp sgt i32 %1, 0
  br i1 %11, label %.lr.ph, label %._crit_edge

.lr.ph:                                           ; preds = %6, %.lr.ph
  %.037 = phi double [ %13, %.lr.ph ], [ 1.000000e+00, %6 ]
  %.01636 = phi i32 [ %12, %.lr.ph ], [ 0, %6 ]
  %12 = add nuw nsw i32 %.01636, 1
  %13 = fmul double %5, %.037
  %exitcond.not = icmp eq i32 %12, %1
  br i1 %exitcond.not, label %._crit_edge, label %.lr.ph, !llvm.loop !33

._crit_edge:                                      ; preds = %.lr.ph, %6
  %.0.lcssa = phi double [ 1.000000e+00, %6 ], [ %13, %.lr.ph ]
  %14 = getelementptr inbounds nuw i8, ptr %0, i64 64
  %15 = load ptr, ptr %14, align 8, !tbaa !34
  %16 = getelementptr inbounds nuw i8, ptr %15, i64 4
  %17 = load i32, ptr %16, align 4, !tbaa !35
  %18 = load i32, ptr %15, align 4, !tbaa !35
  %19 = sitofp i32 %17 to double
  %20 = sitofp i32 %18 to double
  %21 = fdiv double %20, %.0.lcssa
  %22 = fdiv double %19, %.0.lcssa
  %23 = insertelement <2 x double> poison, double %22, i64 0
  call void @llvm.lifetime.start.p0(i64 24, ptr nonnull %7) #22
  %24 = getelementptr inbounds nuw i8, ptr %7, i64 16
  store i32 0, ptr %24, align 8, !tbaa !36
  %25 = getelementptr inbounds nuw i8, ptr %7, i64 20
  store i32 0, ptr %25, align 4, !tbaa !38
  store i32 16842752, ptr %7, align 8, !tbaa !39
  %26 = getelementptr inbounds nuw i8, ptr %7, i64 8
  store ptr %0, ptr %26, align 8, !tbaa !41
  call void @llvm.lifetime.start.p0(i64 24, ptr nonnull %8) #22
  %27 = getelementptr inbounds nuw i8, ptr %8, i64 8
  %28 = getelementptr inbounds nuw i8, ptr %8, i64 16
  store i64 0, ptr %28, align 8
  store i32 33619968, ptr %8, align 8, !tbaa !39
  store ptr %2, ptr %27, align 8, !tbaa !41
  %29 = tail call noundef i32 @llvm.x86.sse2.cvtsd2si(<2 x double> %23)
  %30 = insertelement <2 x double> poison, double %21, i64 0
  %31 = tail call noundef i32 @llvm.x86.sse2.cvtsd2si(<2 x double> %30)
  %.sroa.2.0.insert.ext.i25 = zext i32 %31 to i64
  %.sroa.2.0.insert.shift.i26 = shl nuw i64 %.sroa.2.0.insert.ext.i25, 32
  %.sroa.0.0.insert.ext.i27 = zext i32 %29 to i64
  %.sroa.0.0.insert.insert.i28 = or disjoint i64 %.sroa.2.0.insert.shift.i26, %.sroa.0.0.insert.ext.i27
  call void @_ZN2cv6resizeERKNS_11_InputArrayERKNS_12_OutputArrayENS_5Size_IiEEddi(ptr noundef nonnull align 8 dereferenceable(24) %7, ptr noundef nonnull align 8 dereferenceable(24) %8, i64 %.sroa.0.0.insert.insert.i28, double noundef 0.000000e+00, double noundef 0.000000e+00, i32 noundef 5)
  call void @llvm.lifetime.end.p0(i64 24, ptr nonnull %8) #22
  call void @llvm.lifetime.end.p0(i64 24, ptr nonnull %7) #22
  call void @llvm.lifetime.start.p0(i64 24, ptr nonnull %9) #22
  %32 = getelementptr inbounds nuw i8, ptr %9, i64 16
  store i32 0, ptr %32, align 8, !tbaa !36
  %33 = getelementptr inbounds nuw i8, ptr %9, i64 20
  store i32 0, ptr %33, align 4, !tbaa !38
  store i32 16842752, ptr %9, align 8, !tbaa !39
  %34 = getelementptr inbounds nuw i8, ptr %9, i64 8
  store ptr %2, ptr %34, align 8, !tbaa !41
  call void @llvm.lifetime.start.p0(i64 24, ptr nonnull %10) #22
  %35 = getelementptr inbounds nuw i8, ptr %10, i64 8
  %36 = getelementptr inbounds nuw i8, ptr %10, i64 16
  store i64 0, ptr %36, align 8
  store i32 33619968, ptr %10, align 8, !tbaa !39
  store ptr %3, ptr %35, align 8, !tbaa !41
  call void @_ZN2cv12GaussianBlurERKNS_11_InputArrayERKNS_12_OutputArrayENS_5Size_IiEEddiNS_13AlgorithmHintE(ptr noundef nonnull align 8 dereferenceable(24) %9, ptr noundef nonnull align 8 dereferenceable(24) %10, i64 %4, double noundef 0.000000e+00, double noundef 0.000000e+00, i32 noundef 4, i32 noundef 0)
  call void @llvm.lifetime.end.p0(i64 24, ptr nonnull %10) #22
  call void @llvm.lifetime.end.p0(i64 24, ptr nonnull %9) #22
  ret double %.0.lcssa
}